; Function Attrs: mustprogress nounwind willreturn uwtable
define dso_local void @_Z28cmFortran_yypop_buffer_statePv(ptr noundef captures(none) %0) local_unnamed_addr #8 {
  %2 = getelementptr inbounds nuw i8, ptr %0, i64 40
  %3 = load ptr, ptr %2, align 8, !tbaa !20
  %.not = icmp eq ptr %3, null
  br i1 %.not, label %.critedge26, label %4

4:                                                ; preds = %1
  %5 = getelementptr inbounds nuw i8, ptr %0, i64 24
  %6 = load i64, ptr %5, align 8, !tbaa !21
  %7 = getelementptr inbounds nuw ptr, ptr %3, i64 %6
  %8 = load ptr, ptr %7, align 8, !tbaa !22
  %9 = icmp eq ptr %8, null
  br i1 %9, label %.critedge26, label %.thread.i

.thread.i:                                        ; preds = %4
  store ptr null, ptr %7, align 8, !tbaa !22
  %10 = getelementptr inbounds nuw i8, ptr %8, i64 32
  %11 = load i32, ptr %10, align 8, !tbaa !28
  %.not15.i = icmp eq i32 %11, 0
  br i1 %.not15.i, label %_Z26cmFortran_yy_delete_bufferP15yy_buffer_statePv.exit, label %12

12:                                               ; preds = %.thread.i
  %13 = getelementptr inbounds nuw i8, ptr %8, i64 8
  %14 = load ptr, ptr %13, align 8, !tbaa !27
  tail call void @free(ptr noundef %14) #29
  br label %_Z26cmFortran_yy_delete_bufferP15yy_buffer_statePv.exit

_Z26cmFortran_yy_delete_bufferP15yy_buffer_statePv.exit: ; preds = %.thread.i, %12
  tail call void @free(ptr noundef nonnull %8) #29
  %15 = load ptr, ptr %2, align 8, !tbaa !20
  %16 = load i64, ptr %5, align 8, !tbaa !21
  %17 = getelementptr inbounds nuw ptr, ptr %15, i64 %16
  store ptr null, ptr %17, align 8, !tbaa !22
  %.not22 = icmp eq i64 %16, 0
  br i1 %.not22, label %.critedge26, label %18

18:                                               ; preds = %_Z26cmFortran_yy_delete_bufferP15yy_buffer_statePv.exit
  %19 = add i64 %16, -1
  store i64 %19, ptr %5, align 8, !tbaa !21
  %.phi.trans.insert = getelementptr inbounds nuw ptr, ptr %15, i64 %19
  %.pre = load ptr, ptr %.phi.trans.insert, align 8, !tbaa !22
  %20 = icmp eq ptr %.pre, null
  br i1 %20, label %.critedge26, label %21

21:                                               ; preds = %18
  %22 = getelementptr inbounds nuw i8, ptr %.pre, i64 28
  %23 = load i32, ptr %22, align 4, !tbaa !29
  %24 = getelementptr inbounds nuw i8, ptr %0, i64 52
  store i32 %23, ptr %24, align 4, !tbaa !30
  %25 = getelementptr inbounds nuw i8, ptr %.pre, i64 16
  %26 = load ptr, ptr %25, align 8, !tbaa !31
  %27 = getelementptr inbounds nuw i8, ptr %0, i64 64
  store ptr %26, ptr %27, align 8, !tbaa !32
  %28 = getelementptr inbounds nuw i8, ptr %0, i64 128
  store ptr %26, ptr %28, align 8, !tbaa !33
  %29 = load ptr, ptr %.pre, align 8, !tbaa !34
  %30 = getelementptr inbounds nuw i8, ptr %0, i64 8
  store ptr %29, ptr %30, align 8, !tbaa !17
  %31 = load i8, ptr %26, align 1, !tbaa !35
  %32 = getelementptr inbounds nuw i8, ptr %0, i64 48
  store i8 %31, ptr %32, align 8, !tbaa !36
  %33 = getelementptr inbounds nuw i8, ptr %0, i64 80
  store i32 1, ptr %33, align 8, !tbaa !58
  br label %.critedge26

.critedge26:                                      ; preds = %_Z26cmFortran_yy_delete_bufferP15yy_buffer_statePv.exit, %1, %18, %21, %4
  ret void
}